target datalayout = "e-m:e-p270:32:32-p271:32:32-p272:64:64-i64:64-i128:128-f80:128-n8:16:32:64-S128"
target triple = "x86_64-pc-linux-gnu"

%"class.gmx::Selection" = type { ptr }
%"class.std::__cxx11::basic_string" = type { %"struct.std::__cxx11::basic_string<char>::_Alloc_hider", i64, %union.anon }
%"struct.std::__cxx11::basic_string<char>::_Alloc_hider" = type { ptr }
%union.anon = type { i64, [8 x i8] }
%"class.gmx::FlagsTemplate.60" = type { i64 }
%"class.std::__shared_count" = type { ptr }
%"class.std::vector.158" = type { %"struct.std::_Vector_base.159" }
%"struct.std::_Vector_base.159" = type { %"struct.std::_Vector_base<float, std::allocator<float>>::_Vector_impl" }
%"struct.std::_Vector_base<float, std::allocator<float>>::_Vector_impl" = type { %"struct.std::_Vector_base<float, std::allocator<float>>::_Vector_impl_data" }
%"struct.std::_Vector_base<float, std::allocator<float>>::_Vector_impl_data" = type { ptr, ptr, ptr }
%"class.gmx::InternalError" = type { %"class.gmx::GromacsException" }
%"class.gmx::GromacsException" = type { %"class.std::exception", %"class.std::shared_ptr.150" }
%"class.std::exception" = type { ptr }
%"class.std::shared_ptr.150" = type { %"class.std::__shared_ptr.151" }
%"class.std::__shared_ptr.151" = type { ptr, %"class.std::__shared_count" }
%"class.gmx::ExceptionInitializer" = type { %"class.std::__cxx11::basic_string", %"class.std::vector.153" }
%"class.std::vector.153" = type { %"struct.std::_Vector_base.154" }
%"struct.std::_Vector_base.154" = type { %"struct.std::_Vector_base<std::__exception_ptr::exception_ptr, std::allocator<std::__exception_ptr::exception_ptr>>::_Vector_impl" }
%"struct.std::_Vector_base<std::__exception_ptr::exception_ptr, std::allocator<std::__exception_ptr::exception_ptr>>::_Vector_impl" = type { %"struct.std::_Vector_base<std::__exception_ptr::exception_ptr, std::allocator<std::__exception_ptr::exception_ptr>>::_Vector_impl_data" }
%"struct.std::_Vector_base<std::__exception_ptr::exception_ptr, std::allocator<std::__exception_ptr::exception_ptr>>::_Vector_impl_data" = type { ptr, ptr, ptr }
%"class.gmx::ExceptionInfo" = type { %"class.gmx::internal::IExceptionInfo", %"struct.gmx::ThrowLocation" }
%"class.gmx::internal::IExceptionInfo" = type { ptr }
%"struct.gmx::ThrowLocation" = type <{ ptr, ptr, i32, [4 x i8] }>
%"class.gmx::internal::SelectionData" = type <{ %"class.std::__cxx11::basic_string", %"class.std::__cxx11::basic_string", %struct.gmx_ana_pos_t, %"class.std::vector.158", %"class.std::vector.158", %"class.gmx::FlagsTemplate.60", ptr, i32, float, float, i8, i8, [2 x i8] }>
%struct.gmx_ana_pos_t = type <{ ptr, ptr, ptr, %struct.gmx_ana_indexmap_t, i32, [4 x i8] }>
%struct.gmx_ana_indexmap_t = type { i32, ptr, ptr, %struct.t_blocka, ptr, %struct.t_blocka, i8 }
%struct.t_blocka = type { i32, ptr, i32, ptr, i32, i32 }

@.str.59 = private unnamed_addr constant [18 x i8] c"Invalid GroupType\00", align 1
@__PRETTY_FUNCTION__._ZN3gmx15analysismodules12_GLOBAL__N_119initSelectionGroupsEPNS_9SelectionEPK10gmx_mtop_tNS1_9GroupTypeE = private unnamed_addr constant [113 x i8] c"int gmx::analysismodules::(anonymous namespace)::initSelectionGroups(Selection *, const gmx_mtop_t *, GroupType)\00", align 1
@.str.60 = private unnamed_addr constant [145 x i8] c"generated/home/dtcxzyw/WorkSpace/Projects/compilers/llvm-opt-benchmark/bench/gromacs/gromacs/src/gromacs/trajectoryanalysis/modules/pairdist.cpp\00", align 1
@_ZTIN3gmx13InternalErrorE = external constant ptr
@_ZTVN3gmx8internal14IExceptionInfoE = available_externally unnamed_addr constant { [4 x ptr] } { [4 x ptr] [ptr null, ptr @_ZTIN3gmx8internal14IExceptionInfoE, ptr @_ZN3gmx8internal14IExceptionInfoD1Ev, ptr @_ZN3gmx8internal14IExceptionInfoD0Ev] }, align 8
@_ZTVN3gmx13InternalErrorE = external unnamed_addr constant { [6 x ptr] }, align 8

; Function Attrs: mustprogress nounwind uwtable
define linkonce_odr void @_ZN3gmx8internal14IExceptionInfoC2Ev(ptr noundef nonnull align 8 dereferenceable(8) %0) unnamed_addr #3 comdat align 2 {
  %2 = alloca ptr, align 8
  store ptr %0, ptr %2, align 8, !tbaa !454
  %3 = load ptr, ptr %2, align 8
  store ptr getelementptr inbounds inrange(-16, 16) ({ [4 x ptr] }, ptr @_ZTVN3gmx8internal14IExceptionInfoE, i32 0, i32 0, i32 2), ptr %3, align 8, !tbaa !9
  ret void
}

; Function Attrs: mustprogress nounwind uwtable
define linkonce_odr noundef i32 @_ZNK3gmx8internal13SelectionData4typeEv(ptr noundef nonnull align 8 dereferenceable(294) %0) #3 comdat align 2 {
  %2 = alloca ptr, align 8
  store ptr %0, ptr %2, align 8, !tbaa !440
  %3 = load ptr, ptr %2, align 8
  %4 = getelementptr inbounds nuw %"class.gmx::internal::SelectionData", ptr %3, i32 0, i32 2
  %5 = getelementptr inbounds nuw %struct.gmx_ana_pos_t, ptr %4, i32 0, i32 3
  %6 = getelementptr inbounds nuw %struct.gmx_ana_indexmap_t, ptr %5, i32 0, i32 0
  %7 = load i32, ptr %6, align 8, !tbaa !441
  ret i32 %7
}

; Function Attrs: mustprogress nounwind uwtable
define linkonce_odr noundef nonnull align 8 dereferenceable(294) ptr @_ZNK3gmx9Selection4dataEv(ptr noundef nonnull align 8 dereferenceable(8) %0) #3 comdat align 2 {
  %2 = alloca ptr, align 8
  store ptr %0, ptr %2, align 8, !tbaa !70
  %3 = load ptr, ptr %2, align 8
  %4 = getelementptr inbounds nuw %"class.gmx::Selection", ptr %3, i32 0, i32 0
  %5 = load ptr, ptr %4, align 8, !tbaa !71
  ret ptr %5
}

; Function Attrs: mustprogress nounwind uwtable
define linkonce_odr void @_ZN3gmx13ExceptionInfoINS_22ExceptionInfoLocation_ENS_13ThrowLocationEEC2ERKS2_(ptr noundef nonnull align 8 dereferenceable(32) %0, ptr noundef nonnull align 8 dereferenceable(20) %1) unnamed_addr #3 comdat align 2 {
  %3 = alloca ptr, align 8
  %4 = alloca ptr, align 8
  store ptr %0, ptr %3, align 8, !tbaa !427
  store ptr %1, ptr %4, align 8, !tbaa !431
  %5 = load ptr, ptr %3, align 8
  call void @_ZN3gmx8internal14IExceptionInfoC2Ev(ptr noundef nonnull align 8 dereferenceable(8) %5) #20
  store ptr getelementptr inbounds inrange(-16, 16) ({ [4 x ptr] }, ptr @_ZTVN3gmx13ExceptionInfoINS_22ExceptionInfoLocation_ENS_13ThrowLocationEEE, i32 0, i32 0, i32 2), ptr %5, align 8, !tbaa !9
  %6 = getelementptr inbounds nuw %"class.gmx::ExceptionInfo", ptr %5, i32 0, i32 1
  %7 = load ptr, ptr %4, align 8, !tbaa !431
  call void @llvm.memcpy.p0.p0.i64(ptr align 8 %6, ptr align 8 %7, i64 24, i1 false), !tbaa.struct !437
  ret void
}

; Function Attrs: mustprogress nounwind uwtable
define linkonce_odr void @_ZN3gmx13ThrowLocationC2EPKcS2_i(ptr noundef nonnull align 8 dereferenceable(20) %0, ptr noundef %1, ptr noundef %2, i32 noundef %3) unnamed_addr #3 comdat align 2 {
  %5 = alloca ptr, align 8
  %6 = alloca ptr, align 8
  %7 = alloca ptr, align 8
  %8 = alloca i32, align 4
  store ptr %0, ptr %5, align 8, !tbaa !431
  store ptr %1, ptr %6, align 8, !tbaa !136
  store ptr %2, ptr %7, align 8, !tbaa !136
  store i32 %3, ptr %8, align 4, !tbaa !85
  %9 = load ptr, ptr %5, align 8
  %10 = getelementptr inbounds nuw %"struct.gmx::ThrowLocation", ptr %9, i32 0, i32 0
  %11 = load ptr, ptr %6, align 8, !tbaa !136
  store ptr %11, ptr %10, align 8, !tbaa !433
  %12 = getelementptr inbounds nuw %"struct.gmx::ThrowLocation", ptr %9, i32 0, i32 1
  %13 = load ptr, ptr %7, align 8, !tbaa !136
  store ptr %13, ptr %12, align 8, !tbaa !435
  %14 = getelementptr inbounds nuw %"struct.gmx::ThrowLocation", ptr %9, i32 0, i32 2
  %15 = load i32, ptr %8, align 4, !tbaa !85
  store i32 %15, ptr %14, align 8, !tbaa !436
  ret void
}

; Function Attrs: mustprogress uwtable
define linkonce_odr void @_ZN3gmx13InternalErrorC2ERKNS_20ExceptionInitializerE(ptr noundef nonnull align 8 dereferenceable(24) %0, ptr noundef nonnull align 8 dereferenceable(56) %1) unnamed_addr #0 comdat align 2 {
  %3 = alloca ptr, align 8
  %4 = alloca ptr, align 8
  store ptr %0, ptr %3, align 8, !tbaa !425
  store ptr %1, ptr %4, align 8, !tbaa !429
  %5 = load ptr, ptr %3, align 8
  %6 = load ptr, ptr %4, align 8, !tbaa !429
  call void @_ZN3gmx16GromacsExceptionC2ERKNS_20ExceptionInitializerE(ptr noundef nonnull align 8 dereferenceable(24) %5, ptr noundef nonnull align 8 dereferenceable(56) %6)
  store ptr getelementptr inbounds inrange(-16, 32) ({ [6 x ptr] }, ptr @_ZTVN3gmx13InternalErrorE, i32 0, i32 0, i32 2), ptr %5, align 8, !tbaa !9
  ret void
}

; Function Attrs: mustprogress uwtable
define linkonce_odr noundef i32 @_ZNK3gmx9Selection4typeEv(ptr noundef nonnull align 8 dereferenceable(8) %0) #0 comdat align 2 {
  %2 = alloca ptr, align 8
  store ptr %0, ptr %2, align 8, !tbaa !70
  %3 = load ptr, ptr %2, align 8
  %4 = call noundef nonnull align 8 dereferenceable(294) ptr @_ZNK3gmx9Selection4dataEv(ptr noundef nonnull align 8 dereferenceable(8) %3)
  %5 = call noundef i32 @_ZNK3gmx8internal13SelectionData4typeEv(ptr noundef nonnull align 8 dereferenceable(294) %4)
  ret i32 %5
}

; Function Attrs: mustprogress uwtable
define internal noundef i32 @_ZN3gmx15analysismodules12_GLOBAL__N_119initSelectionGroupsEPNS_9SelectionEPK10gmx_mtop_tNS1_9GroupTypeE(ptr noundef %0, ptr noundef %1, i32 noundef %2) #0 personality ptr @__gxx_personality_v0 {
  %4 = alloca ptr, align 8
  %5 = alloca ptr, align 8
  %6 = alloca i32, align 4
  %7 = alloca i32, align 4
  %8 = alloca %"class.gmx::InternalError", align 8
  %9 = alloca %"class.gmx::ExceptionInitializer", align 8
  %10 = alloca ptr, align 8
  %11 = alloca i32, align 4
  %12 = alloca %"class.gmx::ExceptionInfo", align 8
  %13 = alloca %"struct.gmx::ThrowLocation", align 8
  %14 = alloca i1, align 1
  store ptr %0, ptr %4, align 8, !tbaa !70
  store ptr %1, ptr %5, align 8, !tbaa !409
  store i32 %2, ptr %6, align 4, !tbaa !138
  call void @llvm.lifetime.start.p0(i64 4, ptr %7) #20
  store i32 0, ptr %7, align 4, !tbaa !411
  %15 = load ptr, ptr %4, align 8, !tbaa !70
  %16 = call noundef i32 @_ZNK3gmx9Selection4typeEv(ptr noundef nonnull align 8 dereferenceable(8) %15)
  %17 = icmp ne i32 %16, 0
  br i1 %17, label %18, label %54

18:                                               ; preds = %3
  %19 = load i32, ptr %6, align 4, !tbaa !138
  switch i32 %19, label %53 [
    i32 0, label %20
    i32 1, label %21
    i32 2, label %22
    i32 3, label %23
    i32 4, label %24
  ]

20:                                               ; preds = %18
  store i32 4, ptr %7, align 4, !tbaa !411
  br label %53

21:                                               ; preds = %18
  store i32 2, ptr %7, align 4, !tbaa !411
  br label %53

22:                                               ; preds = %18
  store i32 3, ptr %7, align 4, !tbaa !411
  br label %53

23:                                               ; preds = %18
  store i32 1, ptr %7, align 4, !tbaa !411
  br label %53

24:                                               ; preds = %18
  store i1 true, ptr %14, align 1
  %25 = call ptr @__cxa_allocate_exception(i64 24) #20
  call void @llvm.lifetime.start.p0(i64 56, ptr %9) #20
  invoke void @_ZN3gmx20ExceptionInitializerC2EPKc(ptr noundef nonnull align 8 dereferenceable(56) %9, ptr noundef @.str.59)
          to label %26 unwind label %31

26:                                               ; preds = %24
  invoke void @_ZN3gmx13InternalErrorC2ERKNS_20ExceptionInitializerE(ptr noundef nonnull align 8 dereferenceable(24) %8, ptr noundef nonnull align 8 dereferenceable(56) %9)
          to label %27 unwind label %35

27:                                               ; preds = %26
  call void @llvm.lifetime.start.p0(i64 32, ptr %12) #20
  call void @llvm.lifetime.start.p0(i64 24, ptr %13) #20
  invoke void @_ZN3gmx13ThrowLocationC2EPKcS2_i(ptr noundef nonnull align 8 dereferenceable(20) %13, ptr noundef @__PRETTY_FUNCTION__._ZN3gmx15analysismodules12_GLOBAL__N_119initSelectionGroupsEPNS_9SelectionEPK10gmx_mtop_tNS1_9GroupTypeE, ptr noundef @.str.60, i32 noundef 277)
          to label %28 unwind label %39

28:                                               ; preds = %27
  invoke void @_ZN3gmx13ExceptionInfoINS_22ExceptionInfoLocation_ENS_13ThrowLocationEEC2ERKS2_(ptr noundef nonnull align 8 dereferenceable(32) %12, ptr noundef nonnull align 8 dereferenceable(20) %13)
          to label %29 unwind label %39

29:                                               ; preds = %28
  invoke void @_ZN3gmxlsINS_13InternalErrorENS_22ExceptionInfoLocation_ENS_13ThrowLocationEEENSt9enable_ifIXsr3stdE12is_base_of_vINS_16GromacsExceptionET_EES6_E4typeES6_RKNS_13ExceptionInfoIT0_T1_EE(ptr dead_on_unwind writable sret(%"class.gmx::InternalError") align 8 %25, ptr noundef %8, ptr noundef nonnull align 8 dereferenceable(32) %12)
          to label %30 unwind label %43

30:                                               ; preds = %29
  store i1 false, ptr %14, align 1
  invoke void @__cxa_throw(ptr %25, ptr @_ZTIN3gmx13InternalErrorE, ptr @_ZN3gmx16GromacsExceptionD2Ev) #23
          to label %64 unwind label %43

31:                                               ; preds = %24
  %32 = landingpad { ptr, i32 }
          cleanup
  %33 = extractvalue { ptr, i32 } %32, 0
  store ptr %33, ptr %10, align 8
  %34 = extractvalue { ptr, i32 } %32, 1
  store i32 %34, ptr %11, align 4
  br label %49

35:                                               ; preds = %26
  %36 = landingpad { ptr, i32 }
          cleanup
  %37 = extractvalue { ptr, i32 } %36, 0
  store ptr %37, ptr %10, align 8
  %38 = extractvalue { ptr, i32 } %36, 1
  store i32 %38, ptr %11, align 4
  br label %48

39:                                               ; preds = %28, %27
  %40 = landingpad { ptr, i32 }
          cleanup
  %41 = extractvalue { ptr, i32 } %40, 0
  store ptr %41, ptr %10, align 8
  %42 = extractvalue { ptr, i32 } %40, 1
  store i32 %42, ptr %11, align 4
  br label %47

43:                                               ; preds = %30, %29
  %44 = landingpad { ptr, i32 }
          cleanup
  %45 = extractvalue { ptr, i32 } %44, 0
  store ptr %45, ptr %10, align 8
  %46 = extractvalue { ptr, i32 } %44, 1
  store i32 %46, ptr %11, align 4
  call void @_ZN3gmx8internal14IExceptionInfoD2Ev(ptr noundef nonnull align 8 dereferenceable(32) %12) #20
  br label %47

47:                                               ; preds = %43, %39
  call void @llvm.lifetime.end.p0(i64 24, ptr %13) #20
  call void @llvm.lifetime.end.p0(i64 32, ptr %12) #20
  call void @_ZN3gmx16GromacsExceptionD2Ev(ptr noundef nonnull align 8 dereferenceable(24) %8) #20
  br label %48

48:                                               ; preds = %47, %35
  call void @_ZN3gmx20ExceptionInitializerD2Ev(ptr noundef nonnull align 8 dereferenceable(56) %9) #20
  br label %49

49:                                               ; preds = %48, %31
  call void @llvm.lifetime.end.p0(i64 56, ptr %9) #20
  %50 = load i1, ptr %14, align 1
  br i1 %50, label %51, label %52

51:                                               ; preds = %49
  call void @__cxa_free_exception(ptr %25) #20
  br label %52

52:                                               ; preds = %51, %49
  call void @llvm.lifetime.end.p0(i64 4, ptr %7) #20
  br label %59

53:                                               ; preds = %18, %23, %22, %21, %20
  br label %54

54:                                               ; preds = %53, %3
  %55 = load ptr, ptr %4, align 8, !tbaa !70
  %56 = load ptr, ptr %5, align 8, !tbaa !409
  %57 = load i32, ptr %7, align 4, !tbaa !411
  %58 = call noundef i32 @_ZN3gmx9Selection22initOriginalIdsToGroupEPK10gmx_mtop_t9e_index_t(ptr noundef nonnull align 8 dereferenceable(8) %55, ptr noundef %56, i32 noundef %57)
  call void @llvm.lifetime.end.p0(i64 4, ptr %7) #20
  ret i32 %58

59:                                               ; preds = %52
  %60 = load ptr, ptr %10, align 8
  %61 = load i32, ptr %11, align 4
  %62 = insertvalue { ptr, i32 } poison, ptr %60, 0
  %63 = insertvalue { ptr, i32 } %62, i32 %61, 1
  resume { ptr, i32 } %63

64:                                               ; preds = %30
  unreachable
}