; Function Attrs: mustprogress uwtable
define internal fastcc noundef i32 @_ZN3gmx15analysismodules12_GLOBAL__N_119initSelectionGroupsEPNS_9SelectionEPK10gmx_mtop_tNS1_9GroupTypeE(ptr noundef nonnull %0, ptr noundef %1, i32 noundef %2) unnamed_addr #0 personality ptr @__gxx_personality_v0 {
  %4 = alloca %"class.gmx::InternalError", align 8
  %5 = alloca %"class.gmx::ExceptionInitializer", align 8
  %6 = alloca %"class.gmx::ExceptionInfo", align 8
  %7 = load ptr, ptr %0, align 8, !tbaa !140
  %8 = getelementptr inbounds nuw i8, ptr %7, i64 88
  %9 = load i32, ptr %8, align 8, !tbaa !226
  %.not = icmp eq i32 %9, 0
  br i1 %.not, label %27, label %10

10:                                               ; preds = %3
  switch i32 %2, label %27 [
    i32 0, label %11
    i32 1, label %12
    i32 2, label %13
    i32 3, label %14
    i32 4, label %15
  ]

11:                                               ; preds = %10
  br label %27

12:                                               ; preds = %10
  br label %27

13:                                               ; preds = %10
  br label %27

14:                                               ; preds = %10
  br label %27

15:                                               ; preds = %10
  %16 = tail call ptr @__cxa_allocate_exception(i64 24) #24
  call void @llvm.lifetime.start.p0(i64 56, ptr nonnull %5) #24
  invoke void @_ZN3gmx20ExceptionInitializerC2EPKc(ptr noundef nonnull align 8 dereferenceable(56) %5, ptr noundef nonnull @.str.59)
          to label %17 unwind label %.thread

17:                                               ; preds = %15
  invoke void @_ZN3gmx16GromacsExceptionC2ERKNS_20ExceptionInitializerE(ptr noundef nonnull align 8 dereferenceable(24) %4, ptr noundef nonnull align 8 dereferenceable(56) %5)
          to label %18 unwind label %.thread18

18:                                               ; preds = %17
  store ptr getelementptr inbounds nuw inrange(-16, 32) (i8, ptr @_ZTVN3gmx13InternalErrorE, i64 16), ptr %4, align 8, !tbaa !4
  call void @llvm.lifetime.start.p0(i64 32, ptr nonnull %6) #24
  store ptr getelementptr inbounds nuw inrange(-16, 16) (i8, ptr @_ZTVN3gmx13ExceptionInfoINS_22ExceptionInfoLocation_ENS_13ThrowLocationEEE, i64 16), ptr %6, align 8, !tbaa !4
  %19 = getelementptr inbounds nuw i8, ptr %6, i64 8
  store ptr @__PRETTY_FUNCTION__._ZN3gmx15analysismodules12_GLOBAL__N_119initSelectionGroupsEPNS_9SelectionEPK10gmx_mtop_tNS1_9GroupTypeE, ptr %19, align 8, !tbaa !227
  %.sroa.4.0..sroa_idx = getelementptr inbounds nuw i8, ptr %6, i64 16
  store ptr @.str.60, ptr %.sroa.4.0..sroa_idx, align 8, !tbaa !227
  %.sroa.5.0..sroa_idx = getelementptr inbounds nuw i8, ptr %6, i64 24
  store i32 277, ptr %.sroa.5.0..sroa_idx, align 8, !tbaa !122
  invoke void @_ZN3gmxlsINS_13InternalErrorENS_22ExceptionInfoLocation_ENS_13ThrowLocationEEENSt9enable_ifIXsr3stdE12is_base_of_vINS_16GromacsExceptionET_EES6_E4typeES6_RKNS_13ExceptionInfoIT0_T1_EE(ptr dead_on_unwind writable sret(%"class.gmx::InternalError") align 8 %16, ptr noundef nonnull %4, ptr noundef nonnull align 8 dereferenceable(32) %6)
          to label %20 unwind label %23

20:                                               ; preds = %18
  invoke void @__cxa_throw(ptr %16, ptr nonnull @_ZTIN3gmx13InternalErrorE, ptr nonnull @_ZN3gmx16GromacsExceptionD2Ev) #26
          to label %29 unwind label %23

.thread:                                          ; preds = %15
  %21 = landingpad { ptr, i32 }
          cleanup
  br label %.sink.split

.thread18:                                        ; preds = %17
  %22 = landingpad { ptr, i32 }
          cleanup
  call void @_ZN3gmx20ExceptionInitializerD2Ev(ptr noundef nonnull align 8 dereferenceable(56) %5) #24
  br label %.sink.split

23:                                               ; preds = %18, %20
  %.0 = phi i1 [ false, %20 ], [ true, %18 ]
  %24 = landingpad { ptr, i32 }
          cleanup
  call void @_ZN3gmx8internal14IExceptionInfoD2Ev(ptr noundef nonnull align 8 dereferenceable(32) %6) #24
  call void @llvm.lifetime.end.p0(i64 32, ptr nonnull %6) #24
  call void @_ZN3gmx16GromacsExceptionD2Ev(ptr noundef nonnull align 8 dereferenceable(24) %4) #24
  call void @_ZN3gmx20ExceptionInitializerD2Ev(ptr noundef nonnull align 8 dereferenceable(56) %5) #24
  call void @llvm.lifetime.end.p0(i64 56, ptr nonnull %5) #24
  br i1 %.0, label %25, label %26

.sink.split:                                      ; preds = %.thread, %.thread18
  %.pn.pn17.ph = phi { ptr, i32 } [ %22, %.thread18 ], [ %21, %.thread ]
  call void @llvm.lifetime.end.p0(i64 56, ptr nonnull %5) #24
  br label %25

25:                                               ; preds = %.sink.split, %23
  %.pn.pn17 = phi { ptr, i32 } [ %24, %23 ], [ %.pn.pn17.ph, %.sink.split ]
  call void @__cxa_free_exception(ptr %16) #24
  br label %26

26:                                               ; preds = %25, %23
  %.pn.pn16 = phi { ptr, i32 } [ %.pn.pn17, %25 ], [ %24, %23 ]
  resume { ptr, i32 } %.pn.pn16

27:                                               ; preds = %10, %11, %12, %13, %14, %3
  %.011 = phi i32 [ 0, %10 ], [ 1, %14 ], [ 3, %13 ], [ 2, %12 ], [ 4, %11 ], [ 0, %3 ]
  %28 = tail call noundef i32 @_ZN3gmx9Selection22initOriginalIdsToGroupEPK10gmx_mtop_t9e_index_t(ptr noundef nonnull align 8 dereferenceable(8) %0, ptr noundef %1, i32 noundef %.011)
  ret i32 %28

29:                                               ; preds = %20
  unreachable
}